target datalayout = "e-m:e-p270:32:32-p271:32:32-p272:64:64-i64:64-i128:128-f80:128-n8:16:32:64-S128"
target triple = "x86_64-unknown-linux-gnu"

%"class.icu_75::SortKeyByteSink" = type <{ %"class.icu_75::ByteSink", ptr, i32, i32, i32, [4 x i8] }>
%"class.icu_75::ByteSink" = type { ptr }
%"class.icu_75::CollationKeyByteSink" = type { %"class.icu_75::SortKeyByteSink.base", ptr }
%"class.icu_75::SortKeyByteSink.base" = type <{ %"class.icu_75::ByteSink", ptr, i32, i32, i32 }>

; Function Attrs: mustprogress nounwind uwtable
define linkonce_odr void @_ZN6icu_7515SortKeyByteSink8SetNotOkEv(ptr noundef nonnull align 8 dereferenceable(28) %this) #0 comdat align 2 {
entry:
  %this.addr = alloca ptr, align 8
  store ptr %this, ptr %this.addr, align 8
  %this1 = load ptr, ptr %this.addr, align 8
  %buffer_ = getelementptr inbounds %"class.icu_75::SortKeyByteSink", ptr %this1, i32 0, i32 1
  store ptr null, ptr %buffer_, align 8
  %capacity_ = getelementptr inbounds %"class.icu_75::SortKeyByteSink", ptr %this1, i32 0, i32 2
  store i32 0, ptr %capacity_, align 8
  ret void
}

; Function Attrs: mustprogress uwtable
define noundef signext i8 @_ZN6icu_7520CollationKeyByteSink6ResizeEii(ptr noundef nonnull align 8 dereferenceable(40) %this, i32 noundef %appendCapacity, i32 noundef %length) unnamed_addr #1 align 2 {
entry:
  %retval = alloca i8, align 1
  %this.addr = alloca ptr, align 8
  %appendCapacity.addr = alloca i32, align 4
  %length.addr = alloca i32, align 4
  %newCapacity = alloca i32, align 4
  %altCapacity = alloca i32, align 4
  %newBuffer = alloca ptr, align 8
  store ptr %this, ptr %this.addr, align 8
  store i32 %appendCapacity, ptr %appendCapacity.addr, align 4
  store i32 %length, ptr %length.addr, align 4
  %this1 = load ptr, ptr %this.addr, align 8
  %buffer_ = getelementptr inbounds %"class.icu_75::SortKeyByteSink", ptr %this1, i32 0, i32 1
  %0 = load ptr, ptr %buffer_, align 8
  %cmp = icmp eq ptr %0, null
  br i1 %cmp, label %if.then, label %if.end

if.then:                                          ; preds = %entry
  store i8 0, ptr %retval, align 1
  br label %return

if.end:                                           ; preds = %entry
  %capacity_ = getelementptr inbounds %"class.icu_75::SortKeyByteSink", ptr %this1, i32 0, i32 2
  %1 = load i32, ptr %capacity_, align 8
  %mul = mul nsw i32 2, %1
  store i32 %mul, ptr %newCapacity, align 4
  %2 = load i32, ptr %length.addr, align 4
  %3 = load i32, ptr %appendCapacity.addr, align 4
  %mul2 = mul nsw i32 2, %3
  %add = add nsw i32 %2, %mul2
  store i32 %add, ptr %altCapacity, align 4
  %4 = load i32, ptr %newCapacity, align 4
  %5 = load i32, ptr %altCapacity, align 4
  %cmp3 = icmp slt i32 %4, %5
  br i1 %cmp3, label %if.then4, label %if.end5

if.then4:                                         ; preds = %if.end
  %6 = load i32, ptr %altCapacity, align 4
  store i32 %6, ptr %newCapacity, align 4
  br label %if.end5

if.end5:                                          ; preds = %if.then4, %if.end
  %7 = load i32, ptr %newCapacity, align 4
  %cmp6 = icmp slt i32 %7, 200
  br i1 %cmp6, label %if.then7, label %if.end8

if.then7:                                         ; preds = %if.end5
  store i32 200, ptr %newCapacity, align 4
  br label %if.end8

if.end8:                                          ; preds = %if.then7, %if.end5
  %key_ = getelementptr inbounds %"class.icu_75::CollationKeyByteSink", ptr %this1, i32 0, i32 1
  %8 = load ptr, ptr %key_, align 8
  %9 = load i32, ptr %newCapacity, align 4
  %10 = load i32, ptr %length.addr, align 4
  %call = call noundef ptr @_ZN6icu_7512CollationKey10reallocateEii(ptr noundef nonnull align 8 dereferenceable(48) %8, i32 noundef %9, i32 noundef %10)
  store ptr %call, ptr %newBuffer, align 8
  %11 = load ptr, ptr %newBuffer, align 8
  %cmp9 = icmp eq ptr %11, null
  br i1 %cmp9, label %if.then10, label %if.end11

if.then10:                                        ; preds = %if.end8
  call void @_ZN6icu_7515SortKeyByteSink8SetNotOkEv(ptr noundef nonnull align 8 dereferenceable(28) %this1)
  store i8 0, ptr %retval, align 1
  br label %return

if.end11:                                         ; preds = %if.end8
  %12 = load ptr, ptr %newBuffer, align 8
  %buffer_12 = getelementptr inbounds %"class.icu_75::SortKeyByteSink", ptr %this1, i32 0, i32 1
  store ptr %12, ptr %buffer_12, align 8
  %13 = load i32, ptr %newCapacity, align 4
  %capacity_13 = getelementptr inbounds %"class.icu_75::SortKeyByteSink", ptr %this1, i32 0, i32 2
  store i32 %13, ptr %capacity_13, align 8
  store i8 1, ptr %retval, align 1
  br label %return

return:                                           ; preds = %if.end11, %if.then10, %if.then
  %14 = load i8, ptr %retval, align 1
  ret i8 %14
}