; Function Attrs: mustprogress uwtable
define noundef signext i8 @_ZN6icu_7520CollationKeyByteSink6ResizeEii(ptr nocapture noundef nonnull align 8 dereferenceable(40) %this, i32 noundef %appendCapacity, i32 noundef %length) unnamed_addr #1 align 2 {
entry:
  %buffer_ = getelementptr inbounds i8, ptr %this, i64 8
  %0 = load ptr, ptr %buffer_, align 8
  %cmp = icmp eq ptr %0, null
  br i1 %cmp, label %return, label %if.end

if.end:                                           ; preds = %entry
  %capacity_ = getelementptr inbounds i8, ptr %this, i64 16
  %1 = load i32, ptr %capacity_, align 8
  %mul = shl nsw i32 %1, 1
  %mul2 = shl nsw i32 %appendCapacity, 1
  %add = add nsw i32 %mul2, %length
  %spec.select = tail call i32 @llvm.smax.i32(i32 %mul, i32 %add)
  %spec.store.select = tail call i32 @llvm.smax.i32(i32 %spec.select, i32 200)
  %key_ = getelementptr inbounds i8, ptr %this, i64 32
  %2 = load ptr, ptr %key_, align 8
  %call = tail call noundef ptr @_ZN6icu_7512CollationKey10reallocateEii(ptr noundef nonnull align 8 dereferenceable(48) %2, i32 noundef %spec.store.select, i32 noundef %length)
  %cmp9 = icmp ne ptr %call, null
  %.spec.store.select = select i1 %cmp9, i32 %spec.store.select, i32 0
  %. = zext i1 %cmp9 to i8
  store ptr %call, ptr %buffer_, align 8
  store i32 %.spec.store.select, ptr %capacity_, align 8
  br label %return

return:                                           ; preds = %if.end, %entry
  %retval.0 = phi i8 [ 0, %entry ], [ %., %if.end ]
  ret i8 %retval.0
}